target datalayout = "e-m:e-p270:32:32-p271:32:32-p272:64:64-i64:64-i128:128-f80:128-n8:16:32:64-S128"
target triple = "x86_64-pc-linux-gnu"

%"class.std::__cxx11::basic_string" = type { %"struct.std::__cxx11::basic_string<char>::_Alloc_hider", i64, %union.anon }
%"struct.std::__cxx11::basic_string<char>::_Alloc_hider" = type { ptr }
%union.anon = type { i64, [8 x i8] }
%"class.cv::base64::Base64Writer" = type { ptr, %"class.std::__cxx11::basic_string" }
%"class.cv::base64::RawDataToBinaryConvertor" = type { ptr, ptr, ptr, i64, i64, %"class.std::vector.40" }
%"class.std::vector.40" = type { %"struct.std::_Vector_base.41" }
%"struct.std::_Vector_base.41" = type { %"struct.std::_Vector_base<cv::base64::RawDataToBinaryConvertor::elem_to_binary_t, std::allocator<cv::base64::RawDataToBinaryConvertor::elem_to_binary_t>>::_Vector_impl" }
%"struct.std::_Vector_base<cv::base64::RawDataToBinaryConvertor::elem_to_binary_t, std::allocator<cv::base64::RawDataToBinaryConvertor::elem_to_binary_t>>::_Vector_impl" = type { %"struct.std::_Vector_base<cv::base64::RawDataToBinaryConvertor::elem_to_binary_t, std::allocator<cv::base64::RawDataToBinaryConvertor::elem_to_binary_t>>::_Vector_impl_data" }
%"struct.std::_Vector_base<cv::base64::RawDataToBinaryConvertor::elem_to_binary_t, std::allocator<cv::base64::RawDataToBinaryConvertor::elem_to_binary_t>>::_Vector_impl_data" = type { ptr, ptr, ptr }

@_ZN2cv6base6424RawDataToBinaryConvertorC1EPKviRKNSt7__cxx1112basic_stringIcSt11char_traitsIcESaIcEEE = hidden unnamed_addr alias void (ptr, ptr, i32, ptr), ptr @_ZN2cv6base6424RawDataToBinaryConvertorC2EPKviRKNSt7__cxx1112basic_stringIcSt11char_traitsIcESaIcEEE

; Function Attrs: mustprogress nounwind uwtable
define linkonce_odr hidden void @_ZNSt15__new_allocatorIN2cv6base6424RawDataToBinaryConvertor16elem_to_binary_tEE10deallocateEPS3_m(ptr noundef nonnull align 1 dereferenceable(1) %0, ptr noundef %1, i64 noundef %2) #3 comdat align 2 {
  %4 = alloca ptr, align 8
  %5 = alloca ptr, align 8
  %6 = alloca i64, align 8
  store ptr %0, ptr %4, align 8, !tbaa !193
  store ptr %1, ptr %5, align 8, !tbaa !155
  store i64 %2, ptr %6, align 8, !tbaa !25
  %7 = load ptr, ptr %5, align 8, !tbaa !155
  call void @_ZdlPv(ptr noundef %7) #19
  ret void
}

; Function Attrs: mustprogress uwtable
define linkonce_odr hidden void @_ZNSt16allocator_traitsISaIN2cv6base6424RawDataToBinaryConvertor16elem_to_binary_tEEE10deallocateERS4_PS3_m(ptr noundef nonnull align 1 dereferenceable(1) %0, ptr noundef %1, i64 noundef %2) #0 comdat align 2 {
  %4 = alloca ptr, align 8
  %5 = alloca ptr, align 8
  %6 = alloca i64, align 8
  store ptr %0, ptr %4, align 8, !tbaa !189
  store ptr %1, ptr %5, align 8, !tbaa !155
  store i64 %2, ptr %6, align 8, !tbaa !25
  %7 = load ptr, ptr %4, align 8, !tbaa !189
  %8 = load ptr, ptr %5, align 8, !tbaa !155
  %9 = load i64, ptr %6, align 8, !tbaa !25
  call void @_ZNSt15__new_allocatorIN2cv6base6424RawDataToBinaryConvertor16elem_to_binary_tEE10deallocateEPS3_m(ptr noundef nonnull align 1 dereferenceable(1) %7, ptr noundef %8, i64 noundef %9)
  ret void
}

; Function Attrs: mustprogress nounwind uwtable
define linkonce_odr hidden void @_ZNSt12_Destroy_auxILb1EE9__destroyIPN2cv6base6424RawDataToBinaryConvertor16elem_to_binary_tEEEvT_S7_(ptr noundef %0, ptr noundef %1) #3 comdat align 2 {
  %3 = alloca ptr, align 8
  %4 = alloca ptr, align 8
  store ptr %0, ptr %3, align 8, !tbaa !155
  store ptr %1, ptr %4, align 8, !tbaa !155
  ret void
}

; Function Attrs: mustprogress nounwind uwtable
define linkonce_odr hidden void @_ZNSt15__new_allocatorIN2cv6base6424RawDataToBinaryConvertor16elem_to_binary_tEED2Ev(ptr noundef nonnull align 1 dereferenceable(1) %0) unnamed_addr #3 comdat align 2 {
  %2 = alloca ptr, align 8
  store ptr %0, ptr %2, align 8, !tbaa !193
  ret void
}

; Function Attrs: mustprogress uwtable
define linkonce_odr hidden void @_ZNSt12_Vector_baseIN2cv6base6424RawDataToBinaryConvertor16elem_to_binary_tESaIS3_EE13_M_deallocateEPS3_m(ptr noundef nonnull align 8 dereferenceable(24) %0, ptr noundef %1, i64 noundef %2) #0 comdat align 2 {
  %4 = alloca ptr, align 8
  %5 = alloca ptr, align 8
  %6 = alloca i64, align 8
  store ptr %0, ptr %4, align 8, !tbaa !185
  store ptr %1, ptr %5, align 8, !tbaa !155
  store i64 %2, ptr %6, align 8, !tbaa !25
  %7 = load ptr, ptr %4, align 8
  %8 = load ptr, ptr %5, align 8, !tbaa !155
  %9 = icmp ne ptr %8, null
  br i1 %9, label %10, label %14

10:                                               ; preds = %3
  %11 = getelementptr inbounds nuw %"struct.std::_Vector_base.41", ptr %7, i32 0, i32 0
  %12 = load ptr, ptr %5, align 8, !tbaa !155
  %13 = load i64, ptr %6, align 8, !tbaa !25
  call void @_ZNSt16allocator_traitsISaIN2cv6base6424RawDataToBinaryConvertor16elem_to_binary_tEEE10deallocateERS4_PS3_m(ptr noundef nonnull align 1 dereferenceable(1) %11, ptr noundef %12, i64 noundef %13)
  br label %14

14:                                               ; preds = %10, %3
  ret void
}

; Function Attrs: inlinehint mustprogress uwtable
define linkonce_odr hidden void @_ZSt8_DestroyIPN2cv6base6424RawDataToBinaryConvertor16elem_to_binary_tEEvT_S5_(ptr noundef %0, ptr noundef %1) #2 comdat {
  %3 = alloca ptr, align 8
  %4 = alloca ptr, align 8
  store ptr %0, ptr %3, align 8, !tbaa !155
  store ptr %1, ptr %4, align 8, !tbaa !155
  %5 = load ptr, ptr %3, align 8, !tbaa !155
  %6 = load ptr, ptr %4, align 8, !tbaa !155
  call void @_ZNSt12_Destroy_auxILb1EE9__destroyIPN2cv6base6424RawDataToBinaryConvertor16elem_to_binary_tEEEvT_S7_(ptr noundef %5, ptr noundef %6)
  ret void
}

; Function Attrs: noinline noreturn nounwind uwtable
define linkonce_odr hidden void @__clang_call_terminate(ptr noundef %0) #9 comdat {
  %2 = call ptr @__cxa_begin_catch(ptr %0) #15
  call void @_ZSt9terminatev() #17
  unreachable
}

; Function Attrs: mustprogress nounwind uwtable
define linkonce_odr hidden void @_ZNSt12_Vector_baseIN2cv6base6424RawDataToBinaryConvertor16elem_to_binary_tESaIS3_EED2Ev(ptr noundef nonnull align 8 dereferenceable(24) %0) unnamed_addr #3 comdat align 2 personality ptr @__gxx_personality_v0 {
  %2 = alloca ptr, align 8
  store ptr %0, ptr %2, align 8, !tbaa !185
  %3 = load ptr, ptr %2, align 8
  %4 = getelementptr inbounds nuw %"struct.std::_Vector_base.41", ptr %3, i32 0, i32 0
  %5 = getelementptr inbounds nuw %"struct.std::_Vector_base<cv::base64::RawDataToBinaryConvertor::elem_to_binary_t, std::allocator<cv::base64::RawDataToBinaryConvertor::elem_to_binary_t>>::_Vector_impl_data", ptr %4, i32 0, i32 0
  %6 = load ptr, ptr %5, align 8, !tbaa !140
  %7 = getelementptr inbounds nuw %"struct.std::_Vector_base.41", ptr %3, i32 0, i32 0
  %8 = getelementptr inbounds nuw %"struct.std::_Vector_base<cv::base64::RawDataToBinaryConvertor::elem_to_binary_t, std::allocator<cv::base64::RawDataToBinaryConvertor::elem_to_binary_t>>::_Vector_impl_data", ptr %7, i32 0, i32 2
  %9 = load ptr, ptr %8, align 8, !tbaa !156
  %10 = getelementptr inbounds nuw %"struct.std::_Vector_base.41", ptr %3, i32 0, i32 0
  %11 = getelementptr inbounds nuw %"struct.std::_Vector_base<cv::base64::RawDataToBinaryConvertor::elem_to_binary_t, std::allocator<cv::base64::RawDataToBinaryConvertor::elem_to_binary_t>>::_Vector_impl_data", ptr %10, i32 0, i32 0
  %12 = load ptr, ptr %11, align 8, !tbaa !140
  %13 = ptrtoint ptr %9 to i64
  %14 = ptrtoint ptr %12 to i64
  %15 = sub i64 %13, %14
  %16 = sdiv exact i64 %15, 24
  invoke void @_ZNSt12_Vector_baseIN2cv6base6424RawDataToBinaryConvertor16elem_to_binary_tESaIS3_EE13_M_deallocateEPS3_m(ptr noundef nonnull align 8 dereferenceable(24) %3, ptr noundef %6, i64 noundef %16)
          to label %17 unwind label %19

17:                                               ; preds = %1
  %18 = getelementptr inbounds nuw %"struct.std::_Vector_base.41", ptr %3, i32 0, i32 0
  call void @_ZNSt15__new_allocatorIN2cv6base6424RawDataToBinaryConvertor16elem_to_binary_tEED2Ev(ptr noundef nonnull align 8 dereferenceable(24) %18) #15
  ret void

19:                                               ; preds = %1
  %20 = landingpad { ptr, i32 }
          catch ptr null
  %21 = extractvalue { ptr, i32 } %20, 0
  call void @__clang_call_terminate(ptr %21) #17
  unreachable
}

; Function Attrs: inlinehint mustprogress uwtable
define linkonce_odr hidden void @_ZSt8_DestroyIPN2cv6base6424RawDataToBinaryConvertor16elem_to_binary_tES3_EvT_S5_RSaIT0_E(ptr noundef %0, ptr noundef %1, ptr noundef nonnull align 1 dereferenceable(1) %2) #2 comdat {
  %4 = alloca ptr, align 8
  %5 = alloca ptr, align 8
  %6 = alloca ptr, align 8
  store ptr %0, ptr %4, align 8, !tbaa !155
  store ptr %1, ptr %5, align 8, !tbaa !155
  store ptr %2, ptr %6, align 8, !tbaa !189
  %7 = load ptr, ptr %4, align 8, !tbaa !155
  %8 = load ptr, ptr %5, align 8, !tbaa !155
  call void @_ZSt8_DestroyIPN2cv6base6424RawDataToBinaryConvertor16elem_to_binary_tEEvT_S5_(ptr noundef %7, ptr noundef %8)
  ret void
}

; Function Attrs: mustprogress nounwind uwtable
define linkonce_odr hidden noundef nonnull align 1 dereferenceable(1) ptr @_ZNSt12_Vector_baseIN2cv6base6424RawDataToBinaryConvertor16elem_to_binary_tESaIS3_EE19_M_get_Tp_allocatorEv(ptr noundef nonnull align 8 dereferenceable(24) %0) #3 comdat align 2 {
  %2 = alloca ptr, align 8
  store ptr %0, ptr %2, align 8, !tbaa !185
  %3 = load ptr, ptr %2, align 8
  %4 = getelementptr inbounds nuw %"struct.std::_Vector_base.41", ptr %3, i32 0, i32 0
  ret ptr %4
}

; Function Attrs: mustprogress nounwind uwtable
define linkonce_odr hidden void @_ZNSt6vectorIN2cv6base6424RawDataToBinaryConvertor16elem_to_binary_tESaIS3_EED2Ev(ptr noundef nonnull align 8 dereferenceable(24) %0) unnamed_addr #3 comdat align 2 personality ptr @__gxx_personality_v0 {
  %2 = alloca ptr, align 8
  store ptr %0, ptr %2, align 8, !tbaa !132
  %3 = load ptr, ptr %2, align 8
  %4 = getelementptr inbounds nuw %"struct.std::_Vector_base.41", ptr %3, i32 0, i32 0
  %5 = getelementptr inbounds nuw %"struct.std::_Vector_base<cv::base64::RawDataToBinaryConvertor::elem_to_binary_t, std::allocator<cv::base64::RawDataToBinaryConvertor::elem_to_binary_t>>::_Vector_impl_data", ptr %4, i32 0, i32 0
  %6 = load ptr, ptr %5, align 8, !tbaa !140
  %7 = getelementptr inbounds nuw %"struct.std::_Vector_base.41", ptr %3, i32 0, i32 0
  %8 = getelementptr inbounds nuw %"struct.std::_Vector_base<cv::base64::RawDataToBinaryConvertor::elem_to_binary_t, std::allocator<cv::base64::RawDataToBinaryConvertor::elem_to_binary_t>>::_Vector_impl_data", ptr %7, i32 0, i32 1
  %9 = load ptr, ptr %8, align 8, !tbaa !141
  %10 = call noundef nonnull align 1 dereferenceable(1) ptr @_ZNSt12_Vector_baseIN2cv6base6424RawDataToBinaryConvertor16elem_to_binary_tESaIS3_EE19_M_get_Tp_allocatorEv(ptr noundef nonnull align 8 dereferenceable(24) %3) #15
  invoke void @_ZSt8_DestroyIPN2cv6base6424RawDataToBinaryConvertor16elem_to_binary_tES3_EvT_S5_RSaIT0_E(ptr noundef %6, ptr noundef %9, ptr noundef nonnull align 1 dereferenceable(1) %10)
          to label %11 unwind label %12

11:                                               ; preds = %1
  call void @_ZNSt12_Vector_baseIN2cv6base6424RawDataToBinaryConvertor16elem_to_binary_tESaIS3_EED2Ev(ptr noundef nonnull align 8 dereferenceable(24) %3) #15
  ret void

12:                                               ; preds = %1
  %13 = landingpad { ptr, i32 }
          catch ptr null
  %14 = extractvalue { ptr, i32 } %13, 0
  call void @__clang_call_terminate(ptr %14) #17
  unreachable
}

; Function Attrs: inlinehint mustprogress nounwind uwtable
define linkonce_odr hidden void @_ZN2cv6base6424RawDataToBinaryConvertorD2Ev(ptr noundef nonnull align 8 dereferenceable(64) %0) unnamed_addr #6 comdat align 2 {
  %2 = alloca ptr, align 8
  store ptr %0, ptr %2, align 8, !tbaa !117
  %3 = load ptr, ptr %2, align 8
  %4 = getelementptr inbounds nuw %"class.cv::base64::RawDataToBinaryConvertor", ptr %3, i32 0, i32 5
  call void @_ZNSt6vectorIN2cv6base6424RawDataToBinaryConvertor16elem_to_binary_tESaIS3_EED2Ev(ptr noundef nonnull align 8 dereferenceable(24) %4) #15
  ret void
}

; Function Attrs: mustprogress uwtable
define hidden void @_ZN2cv6base6412Base64Writer5writeEPKvmPKc(ptr noundef nonnull align 8 dereferenceable(40) %0, ptr noundef %1, i64 noundef %2, ptr noundef %3) #0 align 2 personality ptr @__gxx_personality_v0 {
  %5 = alloca ptr, align 8
  %6 = alloca ptr, align 8
  %7 = alloca i64, align 8
  %8 = alloca ptr, align 8
  %9 = alloca %"class.cv::base64::RawDataToBinaryConvertor", align 8
  %10 = alloca ptr, align 8
  %11 = alloca i32, align 4
  store ptr %0, ptr %5, align 8, !tbaa !36
  store ptr %1, ptr %6, align 8, !tbaa !116
  store i64 %2, ptr %7, align 8, !tbaa !25
  store ptr %3, ptr %8, align 8, !tbaa !3
  %12 = load ptr, ptr %5, align 8
  %13 = load ptr, ptr %8, align 8, !tbaa !3
  call void @_ZN2cv6base6412Base64Writer8check_dtEPKc(ptr noundef nonnull align 8 dereferenceable(40) %12, ptr noundef %13)
  call void @llvm.lifetime.start.p0(i64 64, ptr %9) #15
  %14 = load ptr, ptr %6, align 8, !tbaa !116
  %15 = load i64, ptr %7, align 8, !tbaa !25
  %16 = trunc i64 %15 to i32
  %17 = getelementptr inbounds nuw %"class.cv::base64::Base64Writer", ptr %12, i32 0, i32 1
  call void @_ZN2cv6base6424RawDataToBinaryConvertorC1EPKviRKNSt7__cxx1112basic_stringIcSt11char_traitsIcESaIcEEE(ptr noundef nonnull align 8 dereferenceable(64) %9, ptr noundef %14, i32 noundef %16, ptr noundef nonnull align 8 dereferenceable(32) %17)
  %18 = getelementptr inbounds nuw %"class.cv::base64::Base64Writer", ptr %12, i32 0, i32 0
  %19 = load ptr, ptr %18, align 8, !tbaa !40
  %20 = invoke noundef nonnull align 8 dereferenceable(88) ptr @_ZN2cv6base6420Base64ContextEmitter5writeINS0_24RawDataToBinaryConvertorEEERS1_RT_(ptr noundef nonnull align 8 dereferenceable(88) %19, ptr noundef nonnull align 8 dereferenceable(64) %9)
          to label %21 unwind label %22

21:                                               ; preds = %4
  call void @_ZN2cv6base6424RawDataToBinaryConvertorD2Ev(ptr noundef nonnull align 8 dereferenceable(64) %9) #15
  call void @llvm.lifetime.end.p0(i64 64, ptr %9) #15
  ret void

22:                                               ; preds = %4
  %23 = landingpad { ptr, i32 }
          cleanup
  %24 = extractvalue { ptr, i32 } %23, 0
  store ptr %24, ptr %10, align 8
  %25 = extractvalue { ptr, i32 } %23, 1
  store i32 %25, ptr %11, align 4
  call void @_ZN2cv6base6424RawDataToBinaryConvertorD2Ev(ptr noundef nonnull align 8 dereferenceable(64) %9) #15
  call void @llvm.lifetime.end.p0(i64 64, ptr %9) #15
  br label %26

26:                                               ; preds = %22
  %27 = load ptr, ptr %10, align 8
  %28 = load i32, ptr %11, align 4
  %29 = insertvalue { ptr, i32 } poison, ptr %27, 0
  %30 = insertvalue { ptr, i32 } %29, i32 %28, 1
  resume { ptr, i32 } %30
}