; Function Attrs: mustprogress uwtable
define hidden void @_ZN2cv6base6412Base64Writer5writeEPKvmPKc(ptr noundef nonnull align 8 dereferenceable(40) %0, ptr noundef %1, i64 noundef %2, ptr noundef %3) local_unnamed_addr #0 align 2 personality ptr @__gxx_personality_v0 {
  %5 = alloca %"class.cv::base64::RawDataToBinaryConvertor", align 8
  tail call void @_ZN2cv6base6412Base64Writer8check_dtEPKc(ptr noundef nonnull align 8 dereferenceable(40) %0, ptr noundef %3)
  call void @llvm.lifetime.start.p0(i64 64, ptr nonnull %5) #19
  %6 = trunc i64 %2 to i32
  %7 = getelementptr inbounds nuw i8, ptr %0, i64 8
  call void @_ZN2cv6base6424RawDataToBinaryConvertorC2EPKviRKNSt7__cxx1112basic_stringIcSt11char_traitsIcESaIcEEE(ptr noundef nonnull align 8 dereferenceable(64) %5, ptr noundef %1, i32 noundef %6, ptr noundef nonnull align 8 dereferenceable(32) %7)
  %8 = load ptr, ptr %0, align 8, !tbaa !40
  %9 = invoke noundef nonnull align 8 dereferenceable(88) ptr @_ZN2cv6base6420Base64ContextEmitter5writeINS0_24RawDataToBinaryConvertorEEERS1_RT_(ptr noundef nonnull align 8 dereferenceable(88) %8, ptr noundef nonnull align 8 dereferenceable(64) %5)
          to label %10 unwind label %14

10:                                               ; preds = %4
  %11 = getelementptr inbounds nuw i8, ptr %5, i64 40
  %12 = load ptr, ptr %11, align 8, !tbaa !124
  %.not.i.i.i.i = icmp eq ptr %12, null
  br i1 %.not.i.i.i.i, label %_ZN2cv6base6424RawDataToBinaryConvertorD2Ev.exit, label %13

13:                                               ; preds = %10
  call void @_ZdlPv(ptr noundef nonnull %12) #20
  br label %_ZN2cv6base6424RawDataToBinaryConvertorD2Ev.exit

_ZN2cv6base6424RawDataToBinaryConvertorD2Ev.exit: ; preds = %10, %13
  call void @llvm.lifetime.end.p0(i64 64, ptr nonnull %5) #19
  ret void

14:                                               ; preds = %4
  %15 = landingpad { ptr, i32 }
          cleanup
  %16 = getelementptr inbounds nuw i8, ptr %5, i64 40
  %17 = load ptr, ptr %16, align 8, !tbaa !124
  %.not.i.i.i.i5 = icmp eq ptr %17, null
  br i1 %.not.i.i.i.i5, label %_ZN2cv6base6424RawDataToBinaryConvertorD2Ev.exit6, label %18

18:                                               ; preds = %14
  call void @_ZdlPv(ptr noundef nonnull %17) #20
  br label %_ZN2cv6base6424RawDataToBinaryConvertorD2Ev.exit6

_ZN2cv6base6424RawDataToBinaryConvertorD2Ev.exit6: ; preds = %14, %18
  call void @llvm.lifetime.end.p0(i64 64, ptr nonnull %5) #19
  resume { ptr, i32 } %15
}